target datalayout = "e-m:e-p270:32:32-p271:32:32-p272:64:64-i64:64-i128:128-f80:128-n8:16:32:64-S128"
target triple = "x86_64-pc-linux-gnu"

%struct.ssl_connection_st = type { %struct.ssl_st, ptr, i32, ptr, ptr, ptr, i32, ptr, i32, i32, i32, i32, %struct.OSSL_TIME, %struct.OSSL_TIME, %struct.ossl_statem_st, i32, ptr, ptr, i64, i64, i64, %struct.ossl_quic_tls_callbacks_st, ptr, ptr, %struct.anon, ptr, ptr, ptr, i32, ptr, %struct.ssl_dane_st, ptr, ptr, ptr, ptr, i32, [64 x i8], [64 x i8], [64 x i8], [64 x i8], [64 x i8], [64 x i8], [64 x i8], [64 x i8], [64 x i8], [64 x i8], [64 x i8], [64 x i8], ptr, [64 x i8], i64, i32, i64, [32 x i8], ptr, ptr, ptr, i64, ptr, [32 x i8], i64, i32, ptr, ptr, i32, i32, ptr, ptr, ptr, ptr, ptr, i64, ptr, ptr, i64, i32, i32, i32, i64, i32, i32, i64, i64, i64, %struct.anon.1, ptr, i32, ptr, ptr, ptr, i32, ptr, ptr, ptr, i32, i32, i32, i32, ptr, i64, i32, ptr, %struct.srp_ctx_st, ptr, %struct.record_layer_st, ptr, ptr, ptr, ptr, i64, i32, i32, i32, i64, i64, i64, ptr, ptr, ptr, ptr, ptr, i64, ptr, i64, ptr, i64 }
%struct.ssl_st = type { i32, ptr, ptr, ptr, %struct.CRYPTO_REF_COUNT, ptr, %struct.crypto_ex_data_st }
%struct.CRYPTO_REF_COUNT = type { i32 }
%struct.crypto_ex_data_st = type { ptr, ptr }
%struct.OSSL_TIME = type { i64 }
%struct.ossl_statem_st = type { i32, i32, i32, i32, i32, i32, i32, i32, i32, i32, i32, i32, i32, ptr, ptr, ptr, i8 }
%struct.ossl_quic_tls_callbacks_st = type { ptr, ptr, ptr, ptr, ptr, ptr }
%struct.anon = type { i64, [32 x i8], [32 x i8], ptr, ptr, i32, i32, i32, i32, [2 x i8], i32, i32, i32, i32, %struct.anon.0, [64 x i8], i64, [64 x i8], i64, i32, i32, ptr, i64, ptr, i64, i32, i8, i8, i16, ptr, i16 }
%struct.anon.0 = type { [128 x i8], i64, [128 x i8], i64, i64, i32, ptr, ptr, [4 x ptr], [4 x i16], i64, i32, ptr, i64, ptr, i64, ptr, ptr, ptr, i32, i64, ptr, i32, ptr, i64, ptr, i64, ptr, i64, ptr, ptr, ptr, ptr, i64, i64, ptr, ptr, i32, i32, i32, i32 }
%struct.ssl_dane_st = type { ptr, ptr, ptr, ptr, ptr, i32, i32, i32, i64 }
%struct.anon.1 = type { [29 x i8], ptr, ptr, ptr, i32, ptr, i16, i32, %struct.anon.2, i32, i32, i64, ptr, i64, ptr, i64, ptr, i64, ptr, i64, ptr, i64, ptr, ptr, ptr, ptr, ptr, ptr, ptr, i64, ptr, i64, i32, i32, i32, i32, ptr, i64, i32, i8, i32, [4 x i32], i32, i8, i8, i8, i8 }
%struct.anon.2 = type { ptr, ptr, ptr, i64 }
%struct.srp_ctx_st = type { ptr, ptr, ptr, ptr, ptr, ptr, ptr, ptr, ptr, ptr, ptr, ptr, ptr, ptr, i32, i64 }
%struct.record_layer_st = type { ptr, ptr, ptr, ptr, ptr, ptr, ptr, ptr, i64, i32, i64, [4 x i8], i64, i64, i8, ptr, i32, ptr, ptr, ptr, i64, i64, i64, i64, [32 x %struct.tls_record_st] }
%struct.tls_record_st = type { ptr, i32, i8, ptr, ptr, i64, i64, i16, [8 x i8] }
%struct.ssl_ctx_st = type { ptr, ptr, ptr, ptr, ptr, ptr, ptr, i64, ptr, ptr, i32, %struct.OSSL_TIME, ptr, ptr, ptr, %struct.anon.3, %struct.CRYPTO_REF_COUNT, ptr, ptr, ptr, ptr, ptr, ptr, ptr, ptr, ptr, %struct.crypto_ex_data_st, ptr, ptr, ptr, ptr, ptr, ptr, ptr, i64, i32, i32, i32, i64, ptr, ptr, i32, ptr, ptr, i32, i64, [32 x i8], ptr, ptr, ptr, i32, ptr, ptr, ptr, i64, i64, i64, i64, ptr, ptr, ptr, ptr, ptr, %struct.anon.4, ptr, ptr, ptr, ptr, %struct.srp_ctx_st, %struct.dane_ctx_st, ptr, ptr, ptr, ptr, i32, i32, ptr, ptr, i64, i64, ptr, ptr, ptr, i64, ptr, ptr, i32, ptr, ptr, ptr, [14 x i32], [24 x ptr], [14 x ptr], [14 x i64], i64, ptr, ptr, ptr, i64, i64, ptr, i64, i64, i32, i32, i32, i32, ptr, i64, ptr, i64, i64, ptr, ptr }
%struct.anon.3 = type { i32, i32, i32, i32, i32, i32, i32, i32, i32, i32, i32 }
%struct.anon.4 = type { ptr, ptr, [16 x i8], ptr, ptr, ptr, ptr, ptr, i32, i8, i64, ptr, i64, ptr, i64, ptr, i64, ptr, ptr, i64, ptr, ptr, ptr, i64, ptr, ptr, ptr, ptr, [32 x i8] }
%struct.dane_ctx_st = type { ptr, ptr, i8, i64 }

@.str.1 = private unnamed_addr constant [27 x i8] c"../openssl/ssl/tls13_enc.c\00", align 1
@__func__.tls13_hkdf_expand = private unnamed_addr constant [18 x i8] c"tls13_hkdf_expand\00", align 1
@tls13_derive_iv.ivlabel = internal constant [3 x i8] c"iv\00", align 1

; Function Attrs: nounwind uwtable
define dso_local i32 @tls13_hkdf_expand(ptr noundef %0, ptr noundef %1, ptr noundef %2, ptr noundef %3, i64 noundef %4, ptr noundef %5, i64 noundef %6, ptr noundef %7, i64 noundef %8, i32 noundef %9) #0 {
  %11 = alloca ptr, align 8
  %12 = alloca ptr, align 8
  %13 = alloca ptr, align 8
  %14 = alloca ptr, align 8
  %15 = alloca i64, align 8
  %16 = alloca ptr, align 8
  %17 = alloca i64, align 8
  %18 = alloca ptr, align 8
  %19 = alloca i64, align 8
  %20 = alloca i32, align 4
  %21 = alloca i32, align 4
  %22 = alloca ptr, align 8
  store ptr %0, ptr %11, align 8, !tbaa !25
  store ptr %1, ptr %12, align 8, !tbaa !11
  store ptr %2, ptr %13, align 8, !tbaa !9
  store ptr %3, ptr %14, align 8, !tbaa !9
  store i64 %4, ptr %15, align 8, !tbaa !13
  store ptr %5, ptr %16, align 8, !tbaa !9
  store i64 %6, ptr %17, align 8, !tbaa !13
  store ptr %7, ptr %18, align 8, !tbaa !9
  store i64 %8, ptr %19, align 8, !tbaa !13
  store i32 %9, ptr %20, align 4, !tbaa !15
  call void @llvm.lifetime.start.p0(i64 4, ptr %21) #5
  call void @llvm.lifetime.start.p0(i64 8, ptr %22) #5
  %23 = load ptr, ptr %11, align 8, !tbaa !25
  %24 = getelementptr inbounds nuw %struct.ssl_connection_st, ptr %23, i32 0, i32 0
  %25 = getelementptr inbounds nuw %struct.ssl_st, ptr %24, i32 0, i32 1
  %26 = load ptr, ptr %25, align 8, !tbaa !27
  store ptr %26, ptr %22, align 8, !tbaa !84
  %27 = load ptr, ptr %22, align 8, !tbaa !84
  %28 = getelementptr inbounds nuw %struct.ssl_ctx_st, ptr %27, i32 0, i32 0
  %29 = load ptr, ptr %28, align 8, !tbaa !85
  %30 = load ptr, ptr %22, align 8, !tbaa !84
  %31 = getelementptr inbounds nuw %struct.ssl_ctx_st, ptr %30, i32 0, i32 89
  %32 = load ptr, ptr %31, align 8, !tbaa !100
  %33 = load ptr, ptr %12, align 8, !tbaa !11
  %34 = load ptr, ptr %13, align 8, !tbaa !9
  %35 = load ptr, ptr %14, align 8, !tbaa !9
  %36 = load i64, ptr %15, align 8, !tbaa !13
  %37 = load ptr, ptr %16, align 8, !tbaa !9
  %38 = load i64, ptr %17, align 8, !tbaa !13
  %39 = load ptr, ptr %18, align 8, !tbaa !9
  %40 = load i64, ptr %19, align 8, !tbaa !13
  %41 = load i32, ptr %20, align 4, !tbaa !15
  %42 = icmp ne i32 %41, 0
  %43 = xor i1 %42, true
  %44 = zext i1 %43 to i32
  %45 = call i32 @tls13_hkdf_expand_ex(ptr noundef %29, ptr noundef %32, ptr noundef %33, ptr noundef %34, ptr noundef %35, i64 noundef %36, ptr noundef %37, i64 noundef %38, ptr noundef %39, i64 noundef %40, i32 noundef %44)
  store i32 %45, ptr %21, align 4, !tbaa !15
  %46 = load i32, ptr %21, align 4, !tbaa !15
  %47 = icmp eq i32 %46, 0
  br i1 %47, label %48, label %53

48:                                               ; preds = %10
  %49 = load i32, ptr %20, align 4, !tbaa !15
  %50 = icmp ne i32 %49, 0
  br i1 %50, label %51, label %53

51:                                               ; preds = %48
  call void @ERR_new()
  call void @ERR_set_debug(ptr noundef @.str.1, i32 noundef 113, ptr noundef @__func__.tls13_hkdf_expand)
  %52 = load ptr, ptr %11, align 8, !tbaa !25
  call void (ptr, i32, i32, ptr, ...) @ossl_statem_fatal(ptr noundef %52, i32 noundef 80, i32 noundef 786691, ptr noundef null)
  br label %53

53:                                               ; preds = %51, %48, %10
  %54 = load i32, ptr %21, align 4, !tbaa !15
  call void @llvm.lifetime.end.p0(i64 8, ptr %22) #5
  call void @llvm.lifetime.end.p0(i64 4, ptr %21) #5
  ret i32 %54
}

; Function Attrs: nounwind uwtable
define dso_local i32 @tls13_derive_iv(ptr noundef %0, ptr noundef %1, ptr noundef %2, ptr noundef %3, i64 noundef %4) #0 {
  %6 = alloca ptr, align 8
  %7 = alloca ptr, align 8
  %8 = alloca ptr, align 8
  %9 = alloca ptr, align 8
  %10 = alloca i64, align 8
  store ptr %0, ptr %6, align 8, !tbaa !25
  store ptr %1, ptr %7, align 8, !tbaa !11
  store ptr %2, ptr %8, align 8, !tbaa !9
  store ptr %3, ptr %9, align 8, !tbaa !9
  store i64 %4, ptr %10, align 8, !tbaa !13
  %11 = load ptr, ptr %6, align 8, !tbaa !25
  %12 = load ptr, ptr %7, align 8, !tbaa !11
  %13 = load ptr, ptr %8, align 8, !tbaa !9
  %14 = load ptr, ptr %9, align 8, !tbaa !9
  %15 = load i64, ptr %10, align 8, !tbaa !13
  %16 = call i32 @tls13_hkdf_expand(ptr noundef %11, ptr noundef %12, ptr noundef %13, ptr noundef @tls13_derive_iv.ivlabel, i64 noundef 2, ptr noundef null, i64 noundef 0, ptr noundef %14, i64 noundef %15, i32 noundef 1)
  ret i32 %16
}